target datalayout = "e-m:e-p270:32:32-p271:32:32-p272:64:64-i64:64-i128:128-f80:128-n8:16:32:64-S128"
target triple = "x86_64-unknown-linux-gnu"

%struct.ESPState = type { %struct.DeviceState, [16 x i8], [16 x i8], ptr, ptr, i8, i8, i32, i32, i32, %struct.Fifo8, %struct.SCSIBus, ptr, ptr, %struct.Fifo8, i8, i8, i32, i8, i8, i32, i32, ptr, ptr, ptr, ptr, ptr, i8, i8, i32, i32, i8, i32, i32, [16 x i8], [32 x i8], i32 }
%struct.DeviceState = type { %struct.Object, ptr, ptr, i8, i8, i64, ptr, i32, i8, ptr, %struct.NamedGPIOListHead, %struct.NamedClockListHead, %struct.BusStateHead, i32, i32, i32, %struct.ResettableState, ptr, %struct.MemReentrancyGuard }
%struct.Object = type { ptr, ptr, ptr, i32, ptr }
%struct.NamedGPIOListHead = type { ptr }
%struct.NamedClockListHead = type { ptr }
%struct.BusStateHead = type { ptr }
%struct.ResettableState = type { i32, i8, i8 }
%struct.MemReentrancyGuard = type { i8 }
%struct.SCSIBus = type { %struct.BusState, i32, %struct.SCSISense, ptr, i32 }
%struct.BusState = type { %struct.Object, ptr, ptr, ptr, i32, i8, i8, i32, %union.BusChildHead, %struct.BusStateEntry, %struct.ResettableState }
%union.BusChildHead = type { %struct.QTailQLink }
%struct.QTailQLink = type { ptr, ptr }
%struct.BusStateEntry = type { ptr, ptr }
%struct.SCSISense = type { i8, i8, i8 }
%struct.Fifo8 = type { ptr, i32, i32, i32 }

@.str.3 = private unnamed_addr constant [4 x i8] c"esp\00", align 1
@.str.104 = private unnamed_addr constant [100 x i8] c"/home/dtcxzyw/WorkSpace/Projects/compilers/llvm-opt-benchmark/bench/qemu/qemu/include/hw/scsi/esp.h\00", align 1
@__func__.ESP = private unnamed_addr constant [4 x i8] c"ESP\00", align 1

; Function Attrs: nounwind sspstrong uwtable
define internal ptr @ESP(ptr noundef %obj) #0 {
entry:
  %obj.addr = alloca ptr, align 8
  store ptr %obj, ptr %obj.addr, align 8
  %0 = load ptr, ptr %obj.addr, align 8
  %call = call ptr @object_dynamic_cast_assert(ptr noundef %0, ptr noundef @.str.3, ptr noundef @.str.104, i32 noundef 20, ptr noundef @__func__.ESP)
  ret ptr %call
}

; Function Attrs: nounwind sspstrong uwtable
define internal void @esp_init(ptr noundef %obj) #0 {
entry:
  %obj.addr = alloca ptr, align 8
  %s = alloca ptr, align 8
  store ptr %obj, ptr %obj.addr, align 8
  %0 = load ptr, ptr %obj.addr, align 8
  %call = call ptr @ESP(ptr noundef %0)
  store ptr %call, ptr %s, align 8
  %1 = load ptr, ptr %s, align 8
  %fifo = getelementptr inbounds %struct.ESPState, ptr %1, i32 0, i32 10
  call void @fifo8_create(ptr noundef %fifo, i32 noundef 16)
  %2 = load ptr, ptr %s, align 8
  %cmdfifo = getelementptr inbounds %struct.ESPState, ptr %2, i32 0, i32 14
  call void @fifo8_create(ptr noundef %cmdfifo, i32 noundef 32)
  ret void
}