; Function Attrs: nounwind sspstrong uwtable
define internal void @esp_init(ptr noundef %obj) #0 {
entry:
  %call.i = tail call ptr @object_dynamic_cast_assert(ptr noundef %obj, ptr noundef nonnull @.str.3, ptr noundef nonnull @.str.104, i32 noundef 20, ptr noundef nonnull @__func__.ESP) #10
  %fifo = getelementptr inbounds nuw i8, ptr %call.i, i64 224
  tail call void @fifo8_create(ptr noundef nonnull %fifo, i32 noundef 16) #10
  %cmdfifo = getelementptr inbounds nuw i8, ptr %call.i, i64 408
  tail call void @fifo8_create(ptr noundef nonnull %cmdfifo, i32 noundef 32) #10
  ret void
}